; Function Attrs: mustprogress nounwind uwtable
define hidden void @_ZNK3ade5Graph11ElemDeleterclEPNS_4EdgeE(ptr noundef nonnull readnone align 1 captures(none) dereferenceable(1) %0, ptr noundef %1) local_unnamed_addr #1 align 2 {
  %3 = icmp eq ptr %1, null
  br i1 %3, label %5, label %4

4:                                                ; preds = %2
  tail call void @_ZN3ade4EdgeD1Ev(ptr noundef nonnull align 8 dereferenceable(32) %1) #23
  tail call void @_ZdlPv(ptr noundef nonnull %1) #24
  br label %5

5:                                                ; preds = %4, %2
  ret void
}